target datalayout = "e-m:e-p270:32:32-p271:32:32-p272:64:64-i64:64-i128:128-f80:128-n8:16:32:64-S128"
target triple = "x86_64-pc-linux-gnu"

%struct.GetBitContext = type { ptr, ptr, i32, i32, i32 }
%struct.ArithCoder = type { i32, i32, i32, i32, %union.anon.1, ptr, ptr }
%union.anon.1 = type { ptr }

; Function Attrs: inlinehint nounwind uwtable
define internal i32 @get_bits_count(ptr noundef %0) #4 {
  %2 = alloca ptr, align 8
  store ptr %0, ptr %2, align 8, !tbaa !63
  %3 = load ptr, ptr %2, align 8, !tbaa !63
  %4 = getelementptr inbounds nuw %struct.GetBitContext, ptr %3, i32 0, i32 2
  %5 = load i32, ptr %4, align 8, !tbaa !83
  ret i32 %5
}

; Function Attrs: inlinehint nounwind uwtable
define internal i32 @get_bits1(ptr noundef %0) #4 {
  %2 = alloca ptr, align 8
  %3 = alloca i32, align 4
  %4 = alloca i8, align 1
  store ptr %0, ptr %2, align 8, !tbaa !63
  call void @llvm.lifetime.start.p0(i64 4, ptr %3) #7
  %5 = load ptr, ptr %2, align 8, !tbaa !63
  %6 = getelementptr inbounds nuw %struct.GetBitContext, ptr %5, i32 0, i32 2
  %7 = load i32, ptr %6, align 8, !tbaa !83
  store i32 %7, ptr %3, align 4, !tbaa !40
  call void @llvm.lifetime.start.p0(i64 1, ptr %4) #7
  %8 = load ptr, ptr %2, align 8, !tbaa !63
  %9 = getelementptr inbounds nuw %struct.GetBitContext, ptr %8, i32 0, i32 0
  %10 = load ptr, ptr %9, align 8, !tbaa !78
  %11 = load i32, ptr %3, align 4, !tbaa !40
  %12 = lshr i32 %11, 3
  %13 = zext i32 %12 to i64
  %14 = getelementptr inbounds nuw i8, ptr %10, i64 %13
  %15 = load i8, ptr %14, align 1, !tbaa !72
  store i8 %15, ptr %4, align 1, !tbaa !72
  %16 = load i32, ptr %3, align 4, !tbaa !40
  %17 = and i32 %16, 7
  %18 = load i8, ptr %4, align 1, !tbaa !72
  %19 = zext i8 %18 to i32
  %20 = shl i32 %19, %17
  %21 = trunc i32 %20 to i8
  store i8 %21, ptr %4, align 1, !tbaa !72
  %22 = load i8, ptr %4, align 1, !tbaa !72
  %23 = zext i8 %22 to i32
  %24 = ashr i32 %23, 7
  %25 = trunc i32 %24 to i8
  store i8 %25, ptr %4, align 1, !tbaa !72
  %26 = load ptr, ptr %2, align 8, !tbaa !63
  %27 = getelementptr inbounds nuw %struct.GetBitContext, ptr %26, i32 0, i32 2
  %28 = load i32, ptr %27, align 8, !tbaa !83
  %29 = load ptr, ptr %2, align 8, !tbaa !63
  %30 = getelementptr inbounds nuw %struct.GetBitContext, ptr %29, i32 0, i32 4
  %31 = load i32, ptr %30, align 8, !tbaa !81
  %32 = icmp slt i32 %28, %31
  br i1 %32, label %33, label %36

33:                                               ; preds = %1
  %34 = load i32, ptr %3, align 4, !tbaa !40
  %35 = add i32 %34, 1
  store i32 %35, ptr %3, align 4, !tbaa !40
  br label %36

36:                                               ; preds = %33, %1
  %37 = load i32, ptr %3, align 4, !tbaa !40
  %38 = load ptr, ptr %2, align 8, !tbaa !63
  %39 = getelementptr inbounds nuw %struct.GetBitContext, ptr %38, i32 0, i32 2
  store i32 %37, ptr %39, align 8, !tbaa !83
  %40 = load i8, ptr %4, align 1, !tbaa !72
  %41 = zext i8 %40 to i32
  call void @llvm.lifetime.end.p0(i64 1, ptr %4) #7
  call void @llvm.lifetime.end.p0(i64 4, ptr %3) #7
  ret i32 %41
}

; Function Attrs: inlinehint nounwind uwtable
define internal i32 @get_bits_left(ptr noundef %0) #4 {
  %2 = alloca ptr, align 8
  store ptr %0, ptr %2, align 8, !tbaa !63
  %3 = load ptr, ptr %2, align 8, !tbaa !63
  %4 = getelementptr inbounds nuw %struct.GetBitContext, ptr %3, i32 0, i32 3
  %5 = load i32, ptr %4, align 4, !tbaa !80
  %6 = load ptr, ptr %2, align 8, !tbaa !63
  %7 = call i32 @get_bits_count(ptr noundef %6)
  %8 = sub nsw i32 %5, %7
  ret i32 %8
}

; Function Attrs: nounwind uwtable
define internal void @arith_normalise(ptr noundef %0) #1 {
  %2 = alloca ptr, align 8
  store ptr %0, ptr %2, align 8, !tbaa !65
  br label %3

3:                                                ; preds = %79, %1
  %4 = load ptr, ptr %2, align 8, !tbaa !65
  %5 = getelementptr inbounds nuw %struct.ArithCoder, ptr %4, i32 0, i32 1
  %6 = load i32, ptr %5, align 4, !tbaa !69
  %7 = icmp sge i32 %6, 32768
  br i1 %7, label %8, label %52

8:                                                ; preds = %3
  %9 = load ptr, ptr %2, align 8, !tbaa !65
  %10 = getelementptr inbounds nuw %struct.ArithCoder, ptr %9, i32 0, i32 0
  %11 = load i32, ptr %10, align 8, !tbaa !67
  %12 = icmp slt i32 %11, 32768
  br i1 %12, label %13, label %38

13:                                               ; preds = %8
  %14 = load ptr, ptr %2, align 8, !tbaa !65
  %15 = getelementptr inbounds nuw %struct.ArithCoder, ptr %14, i32 0, i32 0
  %16 = load i32, ptr %15, align 8, !tbaa !67
  %17 = icmp sge i32 %16, 16384
  br i1 %17, label %18, label %36

18:                                               ; preds = %13
  %19 = load ptr, ptr %2, align 8, !tbaa !65
  %20 = getelementptr inbounds nuw %struct.ArithCoder, ptr %19, i32 0, i32 1
  %21 = load i32, ptr %20, align 4, !tbaa !69
  %22 = icmp slt i32 %21, 49152
  br i1 %22, label %23, label %36

23:                                               ; preds = %18
  %24 = load ptr, ptr %2, align 8, !tbaa !65
  %25 = getelementptr inbounds nuw %struct.ArithCoder, ptr %24, i32 0, i32 2
  %26 = load i32, ptr %25, align 8, !tbaa !70
  %27 = sub nsw i32 %26, 16384
  store i32 %27, ptr %25, align 8, !tbaa !70
  %28 = load ptr, ptr %2, align 8, !tbaa !65
  %29 = getelementptr inbounds nuw %struct.ArithCoder, ptr %28, i32 0, i32 0
  %30 = load i32, ptr %29, align 8, !tbaa !67
  %31 = sub nsw i32 %30, 16384
  store i32 %31, ptr %29, align 8, !tbaa !67
  %32 = load ptr, ptr %2, align 8, !tbaa !65
  %33 = getelementptr inbounds nuw %struct.ArithCoder, ptr %32, i32 0, i32 1
  %34 = load i32, ptr %33, align 4, !tbaa !69
  %35 = sub nsw i32 %34, 16384
  store i32 %35, ptr %33, align 4, !tbaa !69
  br label %37

36:                                               ; preds = %18, %13
  ret void

37:                                               ; preds = %23
  br label %51

38:                                               ; preds = %8
  %39 = load ptr, ptr %2, align 8, !tbaa !65
  %40 = getelementptr inbounds nuw %struct.ArithCoder, ptr %39, i32 0, i32 2
  %41 = load i32, ptr %40, align 8, !tbaa !70
  %42 = sub nsw i32 %41, 32768
  store i32 %42, ptr %40, align 8, !tbaa !70
  %43 = load ptr, ptr %2, align 8, !tbaa !65
  %44 = getelementptr inbounds nuw %struct.ArithCoder, ptr %43, i32 0, i32 0
  %45 = load i32, ptr %44, align 8, !tbaa !67
  %46 = sub nsw i32 %45, 32768
  store i32 %46, ptr %44, align 8, !tbaa !67
  %47 = load ptr, ptr %2, align 8, !tbaa !65
  %48 = getelementptr inbounds nuw %struct.ArithCoder, ptr %47, i32 0, i32 1
  %49 = load i32, ptr %48, align 4, !tbaa !69
  %50 = sub nsw i32 %49, 32768
  store i32 %50, ptr %48, align 4, !tbaa !69
  br label %51

51:                                               ; preds = %38, %37
  br label %52

52:                                               ; preds = %51, %3
  %53 = load ptr, ptr %2, align 8, !tbaa !65
  %54 = getelementptr inbounds nuw %struct.ArithCoder, ptr %53, i32 0, i32 2
  %55 = load i32, ptr %54, align 8, !tbaa !70
  %56 = shl i32 %55, 1
  store i32 %56, ptr %54, align 8, !tbaa !70
  %57 = load ptr, ptr %2, align 8, !tbaa !65
  %58 = getelementptr inbounds nuw %struct.ArithCoder, ptr %57, i32 0, i32 0
  %59 = load i32, ptr %58, align 8, !tbaa !67
  %60 = shl i32 %59, 1
  store i32 %60, ptr %58, align 8, !tbaa !67
  %61 = load ptr, ptr %2, align 8, !tbaa !65
  %62 = getelementptr inbounds nuw %struct.ArithCoder, ptr %61, i32 0, i32 1
  %63 = load i32, ptr %62, align 4, !tbaa !69
  %64 = shl i32 %63, 1
  store i32 %64, ptr %62, align 4, !tbaa !69
  %65 = load ptr, ptr %2, align 8, !tbaa !65
  %66 = getelementptr inbounds nuw %struct.ArithCoder, ptr %65, i32 0, i32 1
  %67 = load i32, ptr %66, align 4, !tbaa !69
  %68 = or i32 %67, 1
  store i32 %68, ptr %66, align 4, !tbaa !69
  %69 = load ptr, ptr %2, align 8, !tbaa !65
  %70 = getelementptr inbounds nuw %struct.ArithCoder, ptr %69, i32 0, i32 4
  %71 = load ptr, ptr %70, align 8, !tbaa !72
  %72 = call i32 @get_bits_left(ptr noundef %71)
  %73 = icmp slt i32 %72, 1
  br i1 %73, label %74, label %79

74:                                               ; preds = %52
  %75 = load ptr, ptr %2, align 8, !tbaa !65
  %76 = getelementptr inbounds nuw %struct.ArithCoder, ptr %75, i32 0, i32 3
  %77 = load i32, ptr %76, align 4, !tbaa !71
  %78 = add nsw i32 %77, 1
  store i32 %78, ptr %76, align 4, !tbaa !71
  br label %79

79:                                               ; preds = %74, %52
  %80 = load ptr, ptr %2, align 8, !tbaa !65
  %81 = getelementptr inbounds nuw %struct.ArithCoder, ptr %80, i32 0, i32 4
  %82 = load ptr, ptr %81, align 8, !tbaa !72
  %83 = call i32 @get_bits1(ptr noundef %82)
  %84 = load ptr, ptr %2, align 8, !tbaa !65
  %85 = getelementptr inbounds nuw %struct.ArithCoder, ptr %84, i32 0, i32 2
  %86 = load i32, ptr %85, align 8, !tbaa !70
  %87 = or i32 %86, %83
  store i32 %87, ptr %85, align 8, !tbaa !70
  br label %3
}

; Function Attrs: nounwind uwtable
define internal i32 @arith_get_number(ptr noundef %0, i32 noundef %1) #1 {
  %3 = alloca ptr, align 8
  %4 = alloca i32, align 4
  %5 = alloca i32, align 4
  %6 = alloca i32, align 4
  %7 = alloca i32, align 4
  store ptr %0, ptr %3, align 8, !tbaa !65
  store i32 %1, ptr %4, align 4, !tbaa !40
  call void @llvm.lifetime.start.p0(i64 4, ptr %5) #7
  %8 = load ptr, ptr %3, align 8, !tbaa !65
  %9 = getelementptr inbounds nuw %struct.ArithCoder, ptr %8, i32 0, i32 1
  %10 = load i32, ptr %9, align 4, !tbaa !69
  %11 = load ptr, ptr %3, align 8, !tbaa !65
  %12 = getelementptr inbounds nuw %struct.ArithCoder, ptr %11, i32 0, i32 0
  %13 = load i32, ptr %12, align 8, !tbaa !67
  %14 = sub nsw i32 %10, %13
  %15 = add nsw i32 %14, 1
  store i32 %15, ptr %5, align 4, !tbaa !40
  call void @llvm.lifetime.start.p0(i64 4, ptr %6) #7
  %16 = load ptr, ptr %3, align 8, !tbaa !65
  %17 = getelementptr inbounds nuw %struct.ArithCoder, ptr %16, i32 0, i32 2
  %18 = load i32, ptr %17, align 8, !tbaa !70
  %19 = load ptr, ptr %3, align 8, !tbaa !65
  %20 = getelementptr inbounds nuw %struct.ArithCoder, ptr %19, i32 0, i32 0
  %21 = load i32, ptr %20, align 8, !tbaa !67
  %22 = sub nsw i32 %18, %21
  %23 = add nsw i32 %22, 1
  %24 = load i32, ptr %4, align 4, !tbaa !40
  %25 = mul nsw i32 %23, %24
  %26 = sub nsw i32 %25, 1
  %27 = load i32, ptr %5, align 4, !tbaa !40
  %28 = sdiv i32 %26, %27
  store i32 %28, ptr %6, align 4, !tbaa !40
  call void @llvm.lifetime.start.p0(i64 4, ptr %7) #7
  %29 = load i32, ptr %5, align 4, !tbaa !40
  %30 = load i32, ptr %6, align 4, !tbaa !40
  %31 = mul nsw i32 %29, %30
  store i32 %31, ptr %7, align 4, !tbaa !40
  %32 = load i32, ptr %7, align 4, !tbaa !40
  %33 = load i32, ptr %5, align 4, !tbaa !40
  %34 = add nsw i32 %32, %33
  %35 = load i32, ptr %4, align 4, !tbaa !40
  %36 = sdiv i32 %34, %35
  %37 = load ptr, ptr %3, align 8, !tbaa !65
  %38 = getelementptr inbounds nuw %struct.ArithCoder, ptr %37, i32 0, i32 0
  %39 = load i32, ptr %38, align 8, !tbaa !67
  %40 = add nsw i32 %36, %39
  %41 = sub nsw i32 %40, 1
  %42 = load ptr, ptr %3, align 8, !tbaa !65
  %43 = getelementptr inbounds nuw %struct.ArithCoder, ptr %42, i32 0, i32 1
  store i32 %41, ptr %43, align 4, !tbaa !69
  %44 = load i32, ptr %7, align 4, !tbaa !40
  %45 = load i32, ptr %4, align 4, !tbaa !40
  %46 = sdiv i32 %44, %45
  %47 = load ptr, ptr %3, align 8, !tbaa !65
  %48 = getelementptr inbounds nuw %struct.ArithCoder, ptr %47, i32 0, i32 0
  %49 = load i32, ptr %48, align 8, !tbaa !67
  %50 = add nsw i32 %49, %46
  store i32 %50, ptr %48, align 8, !tbaa !67
  %51 = load ptr, ptr %3, align 8, !tbaa !65
  call void @arith_normalise(ptr noundef %51)
  %52 = load i32, ptr %6, align 4, !tbaa !40
  call void @llvm.lifetime.end.p0(i64 4, ptr %7) #7
  call void @llvm.lifetime.end.p0(i64 4, ptr %6) #7
  call void @llvm.lifetime.end.p0(i64 4, ptr %5) #7
  ret i32 %52
}