; Function Attrs: nofree norecurse nosync nounwind memory(readwrite, inaccessiblemem: none) uwtable
define internal i32 @arith_get_number(ptr noundef captures(none) %0, i32 noundef %1) #5 {
  %3 = getelementptr inbounds nuw i8, ptr %0, i64 4
  %4 = load i32, ptr %3, align 4, !tbaa !48
  %5 = load i32, ptr %0, align 8, !tbaa !46
  %6 = sub nsw i32 %4, %5
  %7 = add nsw i32 %6, 1
  %8 = getelementptr inbounds nuw i8, ptr %0, i64 8
  %9 = load i32, ptr %8, align 8, !tbaa !51
  %reass.sub = sub i32 %9, %5
  %10 = add i32 %reass.sub, 1
  %11 = mul nsw i32 %10, %1
  %12 = add nsw i32 %11, -1
  %13 = sdiv i32 %12, %7
  %14 = mul nsw i32 %7, %13
  %15 = add nsw i32 %14, %7
  %16 = sdiv i32 %15, %1
  %17 = add i32 %5, -1
  %18 = add i32 %17, %16
  store i32 %18, ptr %3, align 4, !tbaa !48
  %19 = sdiv i32 %14, %1
  %20 = add nsw i32 %19, %5
  store i32 %20, ptr %0, align 8, !tbaa !46
  %21 = getelementptr inbounds nuw i8, ptr %0, i64 16
  %22 = getelementptr inbounds nuw i8, ptr %0, i64 12
  br label %23

23:                                               ; preds = %54, %2
  %24 = phi i32 [ %45, %54 ], [ %20, %2 ]
  %25 = phi i32 [ %69, %54 ], [ %9, %2 ]
  %26 = phi i32 [ %47, %54 ], [ %18, %2 ]
  %27 = icmp sgt i32 %26, 32767
  br i1 %27, label %28, label %._crit_edge.i

28:                                               ; preds = %23
  %29 = icmp slt i32 %24, 32768
  br i1 %29, label %30, label %37

30:                                               ; preds = %28
  %31 = icmp sgt i32 %24, 16383
  %32 = icmp samesign ult i32 %26, 49152
  %or.cond.i = and i1 %32, %31
  br i1 %or.cond.i, label %33, label %arith_normalise.exit

33:                                               ; preds = %30
  %34 = add nsw i32 %25, -16384
  %35 = add nsw i32 %24, -16384
  %36 = add nsw i32 %26, -16384
  br label %._crit_edge.i

37:                                               ; preds = %28
  %38 = add nsw i32 %25, -32768
  %39 = add nsw i32 %24, -32768
  %40 = add nsw i32 %26, -32768
  br label %._crit_edge.i

._crit_edge.i:                                    ; preds = %23, %37, %33
  %41 = phi i32 [ %35, %33 ], [ %39, %37 ], [ %24, %23 ]
  %42 = phi i32 [ %34, %33 ], [ %38, %37 ], [ %25, %23 ]
  %43 = phi i32 [ %36, %33 ], [ %40, %37 ], [ %26, %23 ]
  %44 = shl i32 %42, 1
  store i32 %44, ptr %8, align 8, !tbaa !51
  %45 = shl i32 %41, 1
  store i32 %45, ptr %0, align 8, !tbaa !46
  %46 = shl i32 %43, 1
  %47 = or disjoint i32 %46, 1
  store i32 %47, ptr %3, align 4, !tbaa !48
  %48 = load ptr, ptr %21, align 8, !tbaa !49
  %49 = getelementptr i8, ptr %48, i64 16
  %.val.i = load i32, ptr %49, align 8, !tbaa !50
  %50 = getelementptr i8, ptr %48, i64 20
  %.val19.i = load i32, ptr %50, align 4, !tbaa !43
  %.not.i = icmp sgt i32 %.val19.i, %.val.i
  br i1 %.not.i, label %54, label %51

51:                                               ; preds = %._crit_edge.i
  %52 = load i32, ptr %22, align 4, !tbaa !52
  %53 = add nsw i32 %52, 1
  store i32 %53, ptr %22, align 4, !tbaa !52
  br label %54

54:                                               ; preds = %51, %._crit_edge.i
  %55 = load ptr, ptr %48, align 8, !tbaa !41
  %56 = lshr i32 %.val.i, 3
  %57 = zext nneg i32 %56 to i64
  %58 = getelementptr inbounds nuw i8, ptr %55, i64 %57
  %59 = load i8, ptr %58, align 1, !tbaa !49
  %60 = getelementptr inbounds nuw i8, ptr %48, i64 24
  %61 = load i32, ptr %60, align 8, !tbaa !44
  %62 = icmp slt i32 %.val.i, %61
  %63 = zext i1 %62 to i32
  %spec.select.i.i = add i32 %.val.i, %63
  %64 = zext i8 %59 to i32
  %65 = and i32 %.val.i, 7
  %66 = shl nuw nsw i32 %64, %65
  %67 = lshr i32 %66, 7
  store i32 %spec.select.i.i, ptr %49, align 8, !tbaa !50
  %68 = and i32 %67, 1
  %69 = or disjoint i32 %68, %44
  store i32 %69, ptr %8, align 8, !tbaa !51
  br label %23

arith_normalise.exit:                             ; preds = %30
  ret i32 %13
}